((lp0
S'A'
p1
aS'B'
p2
aS'C'
p3
aS'D'
p4
aS'E'
p5
aS'F'
p6
aS'G'
p7
aS'H'
p8
aS'I'
p9
aS'J'
p10
a(lp11
(lp12
I0
aI10
aI30
aI31
aI20
aI28
aI44
aI43
aI10
aI21
aa(lp13
I10
aI0
aI22
aI18
aI40
aI26
aI37
aI39
aI19
aI39
aa(lp14
I30
aI22
aI0
aI18
aI26
aI23
aI50
aI18
aI41
aI41
aa(lp15
I31
aI18
aI18
aI0
aI15
aI22
aI42
aI20
aI12
aI30
aa(lp16
I20
aI40
aI26
aI15
aI0
aI12
aI10
aI15
aI47
aI34
aa(lp17
I28
aI26
aI23
aI22
aI12
aI0
aI16
aI33
aI28
aI18
aa(lp18
I44
aI37
aI50
aI42
aI10
aI16
aI0
aI31
aI37
aI48
aa(lp19
I43
aI39
aI18
aI20
aI15
aI33
aI31
aI0
aI34
aI45
aa(lp20
I10
aI19
aI41
aI12
aI47
aI28
aI37
aI34
aI0
aI28
aa(lp21
I21
aI39
aI41
aI30
aI34
aI18
aI48
aI45
aI28
aI0
aatp22
.