((lp0
S'A'
p1
aS'B'
p2
aS'C'
p3
aS'D'
p4
aS'E'
p5
a(lp6
(lp7
I0
aI10
aI30
aI31
aI20
aa(lp8
I10
aI0
aI22
aI18
aI40
aa(lp9
I30
aI22
aI0
aI18
aI26
aa(lp10
I31
aI18
aI18
aI0
aI15
aa(lp11
I20
aI40
aI26
aI15
aI0
aatp12
.