((lp0
S'A'
p1
aS'B'
p2
aS'C'
p3
aS'D'
p4
aS'E'
p5
aS'F'
p6
a(lp7
(lp8
I0
aI10
aI30
aI31
aI20
aI28
aa(lp9
I10
aI0
aI22
aI18
aI40
aI26
aa(lp10
I30
aI22
aI0
aI18
aI26
aI23
aa(lp11
I31
aI18
aI18
aI0
aI15
aI22
aa(lp12
I20
aI40
aI26
aI15
aI0
aI12
aa(lp13
I28
aI26
aI23
aI22
aI12
aI0
aatp14
.