((lp0
S'A'
p1
aS'B'
p2
aS'C'
p3
aS'D'
p4
aS'E'
p5
aS'F'
p6
aS'G'
p7
a(lp8
(lp9
I0
aI10
aI30
aI31
aI20
aI28
aI44
aa(lp10
I10
aI0
aI22
aI18
aI40
aI26
aI37
aa(lp11
I30
aI22
aI0
aI18
aI26
aI23
aI50
aa(lp12
I31
aI18
aI18
aI0
aI15
aI22
aI42
aa(lp13
I20
aI40
aI26
aI15
aI0
aI12
aI10
aa(lp14
I28
aI26
aI23
aI22
aI12
aI0
aI16
aa(lp15
I44
aI37
aI50
aI42
aI10
aI16
aI0
aatp16
.