((lp0
S'A'
p1
aS'B'
p2
aS'C'
p3
aS'D'
p4
aS'E'
p5
aS'F'
p6
aS'G'
p7
aS'H'
p8
a(lp9
(lp10
I0
aI10
aI30
aI31
aI20
aI28
aI44
aI43
aa(lp11
I10
aI0
aI22
aI18
aI40
aI26
aI37
aI39
aa(lp12
I30
aI22
aI0
aI18
aI26
aI23
aI50
aI18
aa(lp13
I31
aI18
aI18
aI0
aI15
aI22
aI42
aI20
aa(lp14
I20
aI40
aI26
aI15
aI0
aI12
aI10
aI15
aa(lp15
I28
aI26
aI23
aI22
aI12
aI0
aI16
aI33
aa(lp16
I44
aI37
aI50
aI42
aI10
aI16
aI0
aI31
aa(lp17
I43
aI39
aI18
aI20
aI15
aI33
aI31
aI0
aatp18
.