((lp0
S'A'
p1
aS'B'
p2
aS'C'
p3
aS'D'
p4
aS'E'
p5
aS'F'
p6
aS'G'
p7
aS'H'
p8
aS'I'
p9
a(lp10
(lp11
I0
aI10
aI30
aI31
aI20
aI28
aI44
aI43
aI10
aa(lp12
I10
aI0
aI22
aI18
aI40
aI26
aI37
aI39
aI19
aa(lp13
I30
aI22
aI0
aI18
aI26
aI23
aI50
aI18
aI41
aa(lp14
I31
aI18
aI18
aI0
aI15
aI22
aI42
aI20
aI12
aa(lp15
I20
aI40
aI26
aI15
aI0
aI12
aI10
aI15
aI47
aa(lp16
I28
aI26
aI23
aI22
aI12
aI0
aI16
aI33
aI28
aa(lp17
I44
aI37
aI50
aI42
aI10
aI16
aI0
aI31
aI37
aa(lp18
I43
aI39
aI18
aI20
aI15
aI33
aI31
aI0
aI34
aa(lp19
I10
aI19
aI41
aI12
aI47
aI28
aI37
aI34
aI0
aatp20
.